target datalayout = "e-m:e-p270:32:32-p271:32:32-p272:64:64-i64:64-i128:128-f80:128-n8:16:32:64-S128"
target triple = "x86_64-pc-linux-gnu"

%struct.mi_page_queue_s = type { ptr, ptr, i64 }
%struct.mi_heap_s = type { ptr, ptr, i64, i32, i64, [2 x i64], %struct.mi_random_cxt_s, i64, i64, i64, ptr, i8, i8, [129 x ptr], [75 x %struct.mi_page_queue_s] }
%struct.mi_random_cxt_s = type { [16 x i32], [16 x i32], i32, i8 }

@_mi_heap_default = hidden thread_local(initialexec) global ptr @_mi_heap_empty, align 8
@_mi_process_is_initialized = hidden global i8 0, align 1
@os_preloading = internal global i8 1, align 1
@_mi_process_done.process_done = internal global i8 0, align 1
@.str.5 = private unnamed_addr constant [21 x i8] c"process done: 0x%zx\0A\00", align 1

; Function Attrs: inlinehint nounwind uwtable
define internal ptr @mi_prim_get_default_heap() #1 {
  %1 = call align 8 ptr @llvm.threadlocal.address.p0(ptr align 8 @_mi_heap_default)
  %2 = load ptr, ptr %1, align 8, !tbaa !3
  ret ptr %2
}

; Function Attrs: nounwind uwtable
define hidden void @_mi_process_done() #0 {
  %1 = alloca ptr, align 8
  %2 = load i8, ptr @_mi_process_is_initialized, align 1, !tbaa !21, !range !28, !noundef !29
  %3 = trunc i8 %2 to i1
  br i1 %3, label %5, label %4

4:                                                ; preds = %0
  br label %23

5:                                                ; preds = %0
  %6 = load i8, ptr @_mi_process_done.process_done, align 1, !tbaa !21, !range !28, !noundef !29
  %7 = trunc i8 %6 to i1
  br i1 %7, label %8, label %9

8:                                                ; preds = %5
  br label %23

9:                                                ; preds = %5
  store i8 1, ptr @_mi_process_done.process_done, align 1, !tbaa !21
  call void @llvm.lifetime.start.p0(i64 8, ptr %1) #12
  %10 = call ptr @mi_prim_get_default_heap() #11
  store ptr %10, ptr %1, align 8, !tbaa !3
  call void @_mi_prim_thread_done_auto_done() #11
  %11 = load ptr, ptr %1, align 8, !tbaa !3
  call void @mi_heap_collect(ptr noundef %11, i1 noundef zeroext true) #11
  %12 = call zeroext i1 @mi_option_is_enabled(i32 noundef 22) #11
  br i1 %12, label %13, label %16

13:                                               ; preds = %9
  %14 = load ptr, ptr %1, align 8, !tbaa !3
  call void @mi_heap_collect(ptr noundef %14, i1 noundef zeroext true) #11
  %15 = load ptr, ptr %1, align 8, !tbaa !3
  call void @_mi_heap_unsafe_destroy_all(ptr noundef %15) #11
  call void @_mi_arena_unsafe_destroy_all() #11
  call void @_mi_segment_map_unsafe_destroy() #11
  br label %16

16:                                               ; preds = %13, %9
  %17 = call zeroext i1 @mi_option_is_enabled(i32 noundef 1) #11
  br i1 %17, label %20, label %18

18:                                               ; preds = %16
  %19 = call zeroext i1 @mi_option_is_enabled(i32 noundef 2) #11
  br i1 %19, label %20, label %21

20:                                               ; preds = %18, %16
  call void @mi_stats_print(ptr noundef null) #11
  br label %21

21:                                               ; preds = %20, %18
  call void @_mi_allocator_done() #11
  %22 = load i64, ptr getelementptr inbounds nuw (%struct.mi_heap_s, ptr @_mi_heap_main, i32 0, i32 2), align 16, !tbaa !16
  call void (ptr, ...) @_mi_verbose_message(ptr noundef @.str.5, i64 noundef %22) #11
  store i8 1, ptr @os_preloading, align 1, !tbaa !21
  call void @llvm.lifetime.end.p0(i64 8, ptr %1) #12
  br label %23

23:                                               ; preds = %21, %8, %4
  ret void
}